target datalayout = "e-m:e-p270:32:32-p271:32:32-p272:64:64-i64:64-i128:128-f80:128-n8:16:32:64-S128"
target triple = "x86_64-pc-linux-gnu"

%struct.ruby_cmdline_options = type { ptr, i64, i64, %struct.anon.6, %struct.anon.6, %struct.anon.6, i64, %struct.ruby_features_t, %struct.ruby_features_t, i32, i64, ptr, i16 }
%struct.anon.6 = type { %struct.anon.7 }
%struct.anon.7 = type { i64, i32 }
%struct.ruby_features_t = type { i32, i32 }

@rb_eSecurityError = external global i64, align 8
@.str.52 = private unnamed_addr constant [35 x i8] c"no %s allowed while running setuid\00", align 1
@.str.53 = private unnamed_addr constant [35 x i8] c"no %s allowed while running setgid\00", align 1

; Function Attrs: nounwind sspstrong uwtable
define internal void @forbid_setid(ptr noundef %0, ptr noundef %1) #0 {
  %3 = alloca ptr, align 8
  %4 = alloca ptr, align 8
  store ptr %0, ptr %3, align 8, !tbaa !7
  store ptr %1, ptr %4, align 8, !tbaa !51
  %5 = load ptr, ptr %4, align 8, !tbaa !51
  %6 = getelementptr inbounds nuw %struct.ruby_cmdline_options, ptr %5, i32 0, i32 12
  %7 = load i16, ptr %6, align 8
  %8 = lshr i16 %7, 10
  %9 = and i16 %8, 3
  %10 = zext i16 %9 to i32
  %11 = and i32 %10, 1
  %12 = icmp ne i32 %11, 0
  br i1 %12, label %13, label %16

13:                                               ; preds = %2
  %14 = load i64, ptr @rb_eSecurityError, align 8, !tbaa !42
  %15 = load ptr, ptr %3, align 8, !tbaa !7
  call void (i64, ptr, ...) @rb_raise(i64 noundef %14, ptr noundef @.str.52, ptr noundef %15) #26
  unreachable

16:                                               ; preds = %2
  %17 = load ptr, ptr %4, align 8, !tbaa !51
  %18 = getelementptr inbounds nuw %struct.ruby_cmdline_options, ptr %17, i32 0, i32 12
  %19 = load i16, ptr %18, align 8
  %20 = lshr i16 %19, 10
  %21 = and i16 %20, 3
  %22 = zext i16 %21 to i32
  %23 = and i32 %22, 2
  %24 = icmp ne i32 %23, 0
  br i1 %24, label %25, label %28

25:                                               ; preds = %16
  %26 = load i64, ptr @rb_eSecurityError, align 8, !tbaa !42
  %27 = load ptr, ptr %3, align 8, !tbaa !7
  call void (i64, ptr, ...) @rb_raise(i64 noundef %26, ptr noundef @.str.53, ptr noundef %27) #26
  unreachable

28:                                               ; preds = %16
  ret void
}