; Function Attrs: nounwind sspstrong uwtable
define internal fastcc void @forbid_setid(ptr noundef %0, i16 %.120.val) unnamed_addr #0 {
  %2 = and i16 %.120.val, 1024
  %.not = icmp eq i16 %2, 0
  br i1 %.not, label %5, label %3

3:                                                ; preds = %1
  %4 = load i64, ptr @rb_eSecurityError, align 8, !tbaa !47
  tail call void (i64, ptr, ...) @rb_raise(i64 noundef %4, ptr noundef nonnull @.str.52, ptr noundef %0) #26
  unreachable

5:                                                ; preds = %1
  %6 = and i16 %.120.val, 2048
  %.not4 = icmp eq i16 %6, 0
  br i1 %.not4, label %9, label %7

7:                                                ; preds = %5
  %8 = load i64, ptr @rb_eSecurityError, align 8, !tbaa !47
  tail call void (i64, ptr, ...) @rb_raise(i64 noundef %8, ptr noundef nonnull @.str.53, ptr noundef %0) #26
  unreachable

9:                                                ; preds = %5
  ret void
}